(dp0
S'test_account'
p1
(imendeley_client
MendeleyAccount
p2
(dp3
S'access_token'
p4
ccopy_reg
_reconstructor
p5
(coauth2
Token
p6
c__builtin__
object
p7
Ntp8
Rp9
(dp10
S'secret'
p11
V9a10e7f49070cca827aae6c548004f4c
p12
sS'key'
p13
V970a11ae1ba693024cd3469e082cb43f0510c354b
p14
sbsbs.